target datalayout = "e-m:e-p270:32:32-p271:32:32-p272:64:64-i64:64-i128:128-f80:128-n8:16:32:64-S128"
target triple = "x86_64-unknown-linux-gnu"

%"class.icu_75::Hashtable" = type { ptr, %struct.UHashtable }
%struct.UHashtable = type { ptr, ptr, ptr, ptr, ptr, ptr, i32, i32, i32, i32, float, float, i8, i8 }
%"class.icu_75::UObject" = type { ptr }
%"class.icu_75::UnicodeString" = type { %"class.icu_75::Replaceable", %"union.icu_75::UnicodeString::StackBufferOrFields" }
%"class.icu_75::Replaceable" = type { %"class.icu_75::UObject" }
%"union.icu_75::UnicodeString::StackBufferOrFields" = type { %struct.anon.0, [32 x i8] }
%struct.anon.0 = type { i16, i32, i32, ptr }
%"class.icu_75::RuleBasedTransliterator" = type <{ %"class.icu_75::Transliterator.base", [4 x i8], ptr, i8, [7 x i8] }>
%"class.icu_75::Transliterator.base" = type <{ %"class.icu_75::UObject", %"class.icu_75::UnicodeString", ptr, i32 }>
%"class.icu_75::TransliterationRuleData" = type { [8 x i8], %"class.icu_75::TransliterationRuleSet", %"class.icu_75::Hashtable", ptr, i8, i16, i32 }
%"class.icu_75::TransliterationRuleSet" = type { ptr, ptr, ptr, [257 x i32], i32 }

; Function Attrs: mustprogress uwtable
define void @_ZN6icu_7523RuleBasedTransliteratorC2ERKNS_13UnicodeStringEPNS_23TransliterationRuleDataEa(ptr noundef nonnull align 8 dereferenceable(97) %this, ptr noundef nonnull align 8 dereferenceable(64) %id, ptr noundef %theData, i8 noundef signext %isDataAdopted) unnamed_addr #1 align 2 personality ptr @__gxx_personality_v0 {
entry:
  %this.addr = alloca ptr, align 8
  %id.addr = alloca ptr, align 8
  %theData.addr = alloca ptr, align 8
  %isDataAdopted.addr = alloca i8, align 1
  %exn.slot = alloca ptr, align 8
  %ehselector.slot = alloca i32, align 4
  store ptr %this, ptr %this.addr, align 8
  store ptr %id, ptr %id.addr, align 8
  store ptr %theData, ptr %theData.addr, align 8
  store i8 %isDataAdopted, ptr %isDataAdopted.addr, align 1
  %this1 = load ptr, ptr %this.addr, align 8
  %0 = load ptr, ptr %id.addr, align 8
  call void @_ZN6icu_7514TransliteratorC2ERKNS_13UnicodeStringEPNS_13UnicodeFilterE(ptr noundef nonnull align 8 dereferenceable(84) %this1, ptr noundef nonnull align 8 dereferenceable(64) %0, ptr noundef null)
  store ptr getelementptr inbounds ({ [19 x ptr] }, ptr @_ZTVN6icu_7523RuleBasedTransliteratorE, i32 0, i32 0, i32 2), ptr %this1, align 8
  %fData = getelementptr inbounds %"class.icu_75::RuleBasedTransliterator", ptr %this1, i32 0, i32 2
  %1 = load ptr, ptr %theData.addr, align 8
  store ptr %1, ptr %fData, align 8
  %isDataOwned = getelementptr inbounds %"class.icu_75::RuleBasedTransliterator", ptr %this1, i32 0, i32 3
  %2 = load i8, ptr %isDataAdopted.addr, align 1
  store i8 %2, ptr %isDataOwned, align 8
  %fData2 = getelementptr inbounds %"class.icu_75::RuleBasedTransliterator", ptr %this1, i32 0, i32 2
  %3 = load ptr, ptr %fData2, align 8
  %ruleSet = getelementptr inbounds %"class.icu_75::TransliterationRuleData", ptr %3, i32 0, i32 1
  %call = invoke noundef i32 @_ZNK6icu_7522TransliterationRuleSet23getMaximumContextLengthEv(ptr noundef nonnull align 8 dereferenceable(1056) %ruleSet)
          to label %invoke.cont unwind label %lpad

invoke.cont:                                      ; preds = %entry
  invoke void @_ZN6icu_7514Transliterator23setMaximumContextLengthEi(ptr noundef nonnull align 8 dereferenceable(84) %this1, i32 noundef %call)
          to label %invoke.cont3 unwind label %lpad

invoke.cont3:                                     ; preds = %invoke.cont
  ret void

lpad:                                             ; preds = %invoke.cont, %entry
  %4 = landingpad { ptr, i32 }
          cleanup
  %5 = extractvalue { ptr, i32 } %4, 0
  store ptr %5, ptr %exn.slot, align 8
  %6 = extractvalue { ptr, i32 } %4, 1
  store i32 %6, ptr %ehselector.slot, align 4
  call void @_ZN6icu_7514TransliteratorD2Ev(ptr noundef nonnull align 8 dereferenceable(84) %this1) #5
  br label %eh.resume

eh.resume:                                        ; preds = %lpad
  %exn = load ptr, ptr %exn.slot, align 8
  %sel = load i32, ptr %ehselector.slot, align 4
  %lpad.val = insertvalue { ptr, i32 } poison, ptr %exn, 0
  %lpad.val4 = insertvalue { ptr, i32 } %lpad.val, i32 %sel, 1
  resume { ptr, i32 } %lpad.val4
}